Certificate:
    Data:
        Version: 3 (0x2)
        Serial Number: 2 (0x2)
        Signature Algorithm: sha256WithRSAEncryption
        Issuer: C=FR, ST=Radius, L=Somewhere, O=Example Inc./emailAddress=admin@example.org, CN=Example Certificate Authority
        Validity
            Not Before: Jul  9 12:56:08 2024 GMT
            Not After : Sep  7 12:56:08 2024 GMT
        Subject: C=FR, ST=Radius, O=Example Inc., CN=user@example.org/emailAddress=user@example.org
        Subject Public Key Info:
            Public Key Algorithm: rsaEncryption
                Public-Key: (2048 bit)
                Modulus:
                    00:8c:68:81:37:fa:4d:e3:8a:f4:c9:8f:6b:e8:91:
                    28:0b:52:f8:5a:39:4c:47:e5:6e:53:b4:0c:a3:56:
                    04:d7:64:2d:94:fe:39:af:76:ae:ed:7c:2e:be:83:
                    14:fe:cf:9a:bc:ef:8a:c1:f7:ac:d8:80:b6:c5:2b:
                    16:9a:5d:98:8c:32:b1:d9:b4:56:f5:e8:86:10:21:
                    a9:82:cc:28:54:21:14:94:a4:00:b3:42:b2:fb:4d:
                    67:a2:e2:fb:97:02:de:48:9f:95:45:9c:e6:27:16:
                    1a:17:c9:c5:f2:9f:f3:6d:7d:58:ea:dd:13:f4:50:
                    a2:93:17:9a:89:2c:22:c3:e8:f0:a5:1d:d2:90:ac:
                    5a:ad:d1:20:95:00:08:32:2a:0f:06:ab:69:f1:10:
                    24:72:e7:08:84:92:1d:5f:62:0b:be:a4:66:35:5e:
                    b0:2b:c6:16:28:81:38:51:62:17:a4:02:c4:9d:6f:
                    7e:b1:51:de:c5:4c:8b:70:61:ee:e8:99:bb:be:ed:
                    08:5b:23:1d:61:b2:5d:3a:59:32:50:65:32:27:2d:
                    d3:45:cc:82:9b:5a:b6:09:03:71:19:5c:1c:d2:8b:
                    c3:4a:37:36:14:f0:de:63:5b:6c:f3:eb:c2:c3:50:
                    33:c5:61:e2:09:43:24:87:49:f7:4a:ad:aa:95:bd:
                    dd:e3
                Exponent: 65537 (0x10001)
        X509v3 extensions:
            X509v3 Extended Key Usage: 
                TLS Web Client Authentication
            X509v3 CRL Distribution Points: 
                Full Name:
                  URI:http://www.example.com/example_ca.crl
            X509v3 Subject Key Identifier: 
                1E:09:21:F3:26:DE:81:EC:83:33:1B:1E:69:EB:68:17:0E:B4:F1:A8
            X509v3 Authority Key Identifier: 
                1C:E6:AE:74:72:1C:F0:46:D1:8A:62:0E:40:C6:CC:52:64:33:39:3D
    Signature Algorithm: sha256WithRSAEncryption
    Signature Value:
        2d:0c:a1:74:cf:2f:2c:88:cb:4e:66:8c:c2:de:96:f4:15:7a:
        36:70:5b:61:a2:30:64:20:83:5f:28:e2:55:c3:d3:a1:ad:8f:
        7a:3e:ea:7a:32:41:96:fd:e3:74:4d:de:f5:66:f8:9f:65:ed:
        c6:9f:a1:4b:a1:7f:99:85:d2:30:74:ec:8a:5a:ba:8b:6c:60:
        39:ad:32:c3:2c:9f:b0:ed:53:bb:d2:15:d6:2f:90:be:ec:a3:
        66:d5:67:d8:a8:e9:fe:c9:57:f8:35:d2:54:a3:5f:e0:d4:74:
        9a:ca:da:fc:b5:23:b8:51:bf:ef:09:61:f3:35:f3:53:bd:f5:
        ca:89:95:c9:a4:1c:4b:ab:1c:51:68:f0:b0:a8:a9:c9:ef:d7:
        3b:eb:a7:66:f0:9c:1d:8d:97:bf:f0:13:fb:da:16:b4:f2:11:
        64:95:83:2c:ee:b5:09:ab:21:4c:f5:0d:01:96:b8:14:31:d1:
        c0:4a:b1:06:b7:3d:5e:12:48:e7:27:08:e9:bb:67:90:a0:e8:
        7c:2e:61:ec:ed:d5:c3:32:d5:03:83:31:67:0a:69:7e:20:49:
        4a:b5:35:63:92:2a:50:25:8d:94:76:31:40:0c:02:5b:81:00:
        de:87:90:fd:ca:f9:0f:8d:e7:71:94:3c:7f:a3:db:63:22:dc:
        3e:9f:9f:c5
-----BEGIN CERTIFICATE-----
MIIEETCCAvmgAwIBAgIBAjANBgkqhkiG9w0BAQsFADCBkzELMAkGA1UEBhMCRlIx
DzANBgNVBAgMBlJhZGl1czESMBAGA1UEBwwJU29tZXdoZXJlMRUwEwYDVQQKDAxF
eGFtcGxlIEluYy4xIDAeBgkqhkiG9w0BCQEWEWFkbWluQGV4YW1wbGUub3JnMSYw
JAYDVQQDDB1FeGFtcGxlIENlcnRpZmljYXRlIEF1dGhvcml0eTAeFw0yNDA3MDkx
MjU2MDhaFw0yNDA5MDcxMjU2MDhaMHExCzAJBgNVBAYTAkZSMQ8wDQYDVQQIDAZS
YWRpdXMxFTATBgNVBAoMDEV4YW1wbGUgSW5jLjEZMBcGA1UEAwwQdXNlckBleGFt
cGxlLm9yZzEfMB0GCSqGSIb3DQEJARYQdXNlckBleGFtcGxlLm9yZzCCASIwDQYJ
KoZIhvcNAQEBBQADggEPADCCAQoCggEBAIxogTf6TeOK9MmPa+iRKAtS+Fo5TEfl
blO0DKNWBNdkLZT+Oa92ru18Lr6DFP7PmrzvisH3rNiAtsUrFppdmIwysdm0VvXo
hhAhqYLMKFQhFJSkALNCsvtNZ6Li+5cC3kiflUWc5icWGhfJxfKf8219WOrdE/RQ
opMXmoksIsPo8KUd0pCsWq3RIJUACDIqDwarafEQJHLnCISSHV9iC76kZjVesCvG
FiiBOFFiF6QCxJ1vfrFR3sVMi3Bh7uiZu77tCFsjHWGyXTpZMlBlMict00XMgpta
tgkDcRlcHNKLw0o3NhTw3mNbbPPrwsNQM8Vh4glDJIdJ90qtqpW93eMCAwEAAaOB
kDCBjTATBgNVHSUEDDAKBggrBgEFBQcDAjA2BgNVHR8ELzAtMCugKaAnhiVodHRw
Oi8vd3d3LmV4YW1wbGUuY29tL2V4YW1wbGVfY2EuY3JsMB0GA1UdDgQWBBQeCSHz
Jt6B7IMzGx5p62gXDrTxqDAfBgNVHSMEGDAWgBQc5q50chzwRtGKYg5AxsxSZDM5
PTANBgkqhkiG9w0BAQsFAAOCAQEALQyhdM8vLIjLTmaMwt6W9BV6NnBbYaIwZCCD
XyjiVcPToa2Pej7qejJBlv3jdE3e9Wb4n2Xtxp+hS6F/mYXSMHTsilq6i2xgOa0y
wyyfsO1Tu9IV1i+QvuyjZtVn2Kjp/slX+DXSVKNf4NR0msra/LUjuFG/7wlh8zXz
U731yomVyaQcS6scUWjwsKipye/XO+unZvCcHY2Xv/AT+9oWtPIRZJWDLO61Cash
TPUNAZa4FDHRwEqxBrc9XhJI5ycI6btnkKDofC5h7O3VwzLVA4MxZwppfiBJSrU1
Y5IqUCWNlHYxQAwCW4EA3oeQ/cr5D43ncZQ8f6PbYyLcPp+fxQ==
-----END CERTIFICATE-----
